target datalayout = "e-m:e-p270:32:32-p271:32:32-p272:64:64-i64:64-i128:128-f80:128-n8:16:32:64-S128"
target triple = "x86_64-pc-linux-gnu"

%"class.llvm::LegalizerHelper" = type { ptr, ptr, ptr, ptr, ptr, ptr }
%"struct.llvm::LegalizeActionStep" = type { i8, i32, %"class.llvm::LLT" }
%"class.llvm::LLT" = type { i64 }
%"class.llvm::DebugLoc" = type { %"class.llvm::TypedTrackingMDRef" }
%"class.llvm::TypedTrackingMDRef" = type { %"class.llvm::TrackingMDRef" }
%"class.llvm::TrackingMDRef" = type { ptr }
%"class.llvm::MachineInstr" = type <{ %"class.llvm::ilist_node_with_parent", ptr, ptr, ptr, [3 x i8], %"class.llvm::ArrayRecycler<llvm::MachineOperand>::Capacity", i32, %"class.llvm::PointerSumType", %"class.llvm::DebugLoc", i32, i16, [2 x i8] }>
%"class.llvm::ilist_node_with_parent" = type { %"class.llvm::ilist_node" }
%"class.llvm::ilist_node" = type { %"class.llvm::ilist_node_impl.164" }
%"class.llvm::ilist_node_impl.164" = type { %"class.llvm::ilist_node_base.165" }
%"class.llvm::ilist_node_base.165" = type { %"class.llvm::ilist_detail::node_base_prevnext.166" }
%"class.llvm::ilist_detail::node_base_prevnext.166" = type { %"class.llvm::PointerIntPair.167", ptr }
%"class.llvm::PointerIntPair.167" = type { %"struct.llvm::detail::PunnedPointer.168" }
%"struct.llvm::detail::PunnedPointer.168" = type { [8 x i8] }
%"class.llvm::ArrayRecycler<llvm::MachineOperand>::Capacity" = type { i8 }
%"class.llvm::PointerSumType" = type { %"union.llvm::PointerSumType<llvm::MachineInstr::ExtraInfoInlineKinds, llvm::PointerSumTypeMember<0, llvm::MachineMemOperand *>, llvm::PointerSumTypeMember<1, llvm::MCSymbol *>, llvm::PointerSumTypeMember<2, llvm::MCSymbol *>, llvm::PointerSumTypeMember<3, llvm::MachineInstr::ExtraInfo *>>::StorageT" }
%"union.llvm::PointerSumType<llvm::MachineInstr::ExtraInfoInlineKinds, llvm::PointerSumTypeMember<0, llvm::MachineMemOperand *>, llvm::PointerSumTypeMember<1, llvm::MCSymbol *>, llvm::PointerSumTypeMember<2, llvm::MCSymbol *>, llvm::PointerSumTypeMember<3, llvm::MachineInstr::ExtraInfo *>>::StorageT" = type { i64 }

; Function Attrs: mustprogress nounwind uwtable
define linkonce_odr hidden noundef i32 @_ZNK4llvm12MachineInstr9getOpcodeEv(ptr noundef nonnull align 8 dereferenceable(70) %0) #0 comdat align 2 {
  %2 = alloca ptr, align 8
  store ptr %0, ptr %2, align 8
  %3 = load ptr, ptr %2, align 8
  %4 = getelementptr inbounds nuw %"class.llvm::MachineInstr", ptr %3, i32 0, i32 10
  %5 = load i16, ptr %4, align 4
  %6 = zext i16 %5 to i32
  ret i32 %6
}

; Function Attrs: mustprogress nounwind uwtable
define linkonce_odr hidden noundef zeroext i1 @_ZN4llvm10GIntrinsic7classofEPKNS_12MachineInstrE(ptr noundef %0) #0 comdat align 2 {
  %2 = alloca i1, align 1
  %3 = alloca ptr, align 8
  store ptr %0, ptr %3, align 8
  %4 = load ptr, ptr %3, align 8
  %5 = call noundef i32 @_ZNK4llvm12MachineInstr9getOpcodeEv(ptr noundef nonnull align 8 dereferenceable(70) %4)
  switch i32 %5, label %7 [
    i32 122, label %6
    i32 123, label %6
    i32 124, label %6
    i32 125, label %6
  ]

6:                                                ; preds = %1, %1, %1, %1
  store i1 true, ptr %2, align 1
  br label %8

7:                                                ; preds = %1
  store i1 false, ptr %2, align 1
  br label %8

8:                                                ; preds = %7, %6
  %9 = load i1, ptr %2, align 1
  ret i1 %9
}

; Function Attrs: mustprogress nounwind uwtable
define linkonce_odr hidden noundef zeroext i1 @_ZN4llvm8isa_implINS_10GIntrinsicENS_12MachineInstrEvE4doitERKS2_(ptr noundef nonnull align 8 dereferenceable(70) %0) #0 comdat align 2 {
  %2 = alloca ptr, align 8
  store ptr %0, ptr %2, align 8
  %3 = load ptr, ptr %2, align 8
  %4 = call noundef zeroext i1 @_ZN4llvm10GIntrinsic7classofEPKNS_12MachineInstrE(ptr noundef %3)
  ret i1 %4
}

; Function Attrs: mustprogress nounwind uwtable
define linkonce_odr hidden noundef zeroext i1 @_ZN4llvm11isa_impl_clINS_10GIntrinsicEKNS_12MachineInstrEE4doitERS3_(ptr noundef nonnull align 8 dereferenceable(70) %0) #0 comdat align 2 {
  %2 = alloca ptr, align 8
  store ptr %0, ptr %2, align 8
  %3 = load ptr, ptr %2, align 8
  %4 = call noundef zeroext i1 @_ZN4llvm8isa_implINS_10GIntrinsicENS_12MachineInstrEvE4doitERKS2_(ptr noundef nonnull align 8 dereferenceable(70) %3)
  ret i1 %4
}

; Function Attrs: mustprogress nounwind uwtable
define linkonce_odr hidden noundef zeroext i1 @_ZN4llvm13isa_impl_wrapINS_10GIntrinsicEKNS_12MachineInstrES3_E4doitERS3_(ptr noundef nonnull align 8 dereferenceable(70) %0) #0 comdat align 2 {
  %2 = alloca ptr, align 8
  store ptr %0, ptr %2, align 8
  %3 = load ptr, ptr %2, align 8
  %4 = call noundef zeroext i1 @_ZN4llvm11isa_impl_clINS_10GIntrinsicEKNS_12MachineInstrEE4doitERS3_(ptr noundef nonnull align 8 dereferenceable(70) %3)
  ret i1 %4
}

; Function Attrs: mustprogress nounwind uwtable
define linkonce_odr hidden noundef zeroext i1 @_ZN4llvm14CastIsPossibleINS_10GIntrinsicEKNS_12MachineInstrEvE10isPossibleERS3_(ptr noundef nonnull align 8 dereferenceable(70) %0) #0 comdat align 2 {
  %2 = alloca ptr, align 8
  store ptr %0, ptr %2, align 8
  %3 = load ptr, ptr %2, align 8
  %4 = call noundef zeroext i1 @_ZN4llvm13isa_impl_wrapINS_10GIntrinsicEKNS_12MachineInstrES3_E4doitERS3_(ptr noundef nonnull align 8 dereferenceable(70) %3)
  ret i1 %4
}

; Function Attrs: mustprogress nounwind uwtable
define linkonce_odr hidden noundef zeroext i1 @_ZN4llvm3isaINS_10GIntrinsicENS_12MachineInstrEEEbRKT0_(ptr noundef nonnull align 8 dereferenceable(70) %0) #0 comdat {
  %2 = alloca ptr, align 8
  store ptr %0, ptr %2, align 8
  %3 = load ptr, ptr %2, align 8
  %4 = call noundef zeroext i1 @_ZN4llvm14CastIsPossibleINS_10GIntrinsicEKNS_12MachineInstrEvE10isPossibleERS3_(ptr noundef nonnull align 8 dereferenceable(70) %3)
  ret i1 %4
}

; Function Attrs: mustprogress nounwind uwtable
define dso_local noundef i32 @_ZN4llvm15LegalizerHelper17legalizeInstrStepERNS_12MachineInstrERNS_20LostDebugLocObserverE(ptr noundef nonnull align 8 dereferenceable(48) %0, ptr noundef nonnull align 8 dereferenceable(70) %1, ptr noundef nonnull align 8 dereferenceable(252) %2) #0 align 2 {
  %4 = alloca i32, align 4
  %5 = alloca ptr, align 8
  %6 = alloca ptr, align 8
  %7 = alloca ptr, align 8
  %8 = alloca %"struct.llvm::LegalizeActionStep", align 8
  %9 = alloca %"class.llvm::LLT", align 8
  %10 = alloca %"class.llvm::LLT", align 8
  %11 = alloca %"class.llvm::LLT", align 8
  %12 = alloca %"class.llvm::LLT", align 8
  %13 = alloca %"class.llvm::LLT", align 8
  %14 = alloca %"class.llvm::LLT", align 8
  store ptr %0, ptr %5, align 8
  store ptr %1, ptr %6, align 8
  store ptr %2, ptr %7, align 8
  %15 = load ptr, ptr %5, align 8
  br label %16

16:                                               ; preds = %3
  br label %17

17:                                               ; preds = %16
  %18 = getelementptr inbounds nuw %"class.llvm::LegalizerHelper", ptr %15, i32 0, i32 0
  %19 = load ptr, ptr %18, align 8
  %20 = load ptr, ptr %6, align 8
  call void @_ZN4llvm16MachineIRBuilder19setInstrAndDebugLocERNS_12MachineInstrE(ptr noundef nonnull align 8 dereferenceable(88) %19, ptr noundef nonnull align 8 dereferenceable(70) %20)
  %21 = load ptr, ptr %6, align 8
  %22 = call noundef zeroext i1 @_ZN4llvm3isaINS_10GIntrinsicENS_12MachineInstrEEEbRKT0_(ptr noundef nonnull align 8 dereferenceable(70) %21)
  br i1 %22, label %23, label %32

23:                                               ; preds = %17
  %24 = getelementptr inbounds nuw %"class.llvm::LegalizerHelper", ptr %15, i32 0, i32 3
  %25 = load ptr, ptr %24, align 8
  %26 = load ptr, ptr %6, align 8
  %27 = load ptr, ptr %25, align 8
  %28 = getelementptr inbounds ptr, ptr %27, i64 3
  %29 = load ptr, ptr %28, align 8
  %30 = call noundef zeroext i1 %29(ptr noundef nonnull align 8 dereferenceable(121040) %25, ptr noundef nonnull align 8 dereferenceable(48) %15, ptr noundef nonnull align 8 dereferenceable(70) %26)
  %31 = select i1 %30, i32 1, i32 2
  store i32 %31, ptr %4, align 4
  br label %130

32:                                               ; preds = %17
  %33 = getelementptr inbounds nuw %"class.llvm::LegalizerHelper", ptr %15, i32 0, i32 3
  %34 = load ptr, ptr %33, align 8
  %35 = load ptr, ptr %6, align 8
  %36 = getelementptr inbounds nuw %"class.llvm::LegalizerHelper", ptr %15, i32 0, i32 2
  %37 = load ptr, ptr %36, align 8
  %38 = call { i64, i64 } @_ZNK4llvm13LegalizerInfo9getActionERKNS_12MachineInstrERKNS_19MachineRegisterInfoE(ptr noundef nonnull align 8 dereferenceable(121040) %34, ptr noundef nonnull align 8 dereferenceable(70) %35, ptr noundef nonnull align 8 dereferenceable(512) %37)
  %39 = getelementptr inbounds nuw { i64, i64 }, ptr %8, i32 0, i32 0
  %40 = extractvalue { i64, i64 } %38, 0
  store i64 %40, ptr %39, align 8
  %41 = getelementptr inbounds nuw { i64, i64 }, ptr %8, i32 0, i32 1
  %42 = extractvalue { i64, i64 } %38, 1
  store i64 %42, ptr %41, align 8
  %43 = getelementptr inbounds nuw %"struct.llvm::LegalizeActionStep", ptr %8, i32 0, i32 0
  %44 = load i8, ptr %43, align 8
  %45 = zext i8 %44 to i32
  switch i32 %45, label %127 [
    i32 0, label %46
    i32 7, label %49
    i32 1, label %55
    i32 2, label %65
    i32 5, label %75
    i32 6, label %85
    i32 3, label %95
    i32 4, label %105
    i32 8, label %115
  ]

46:                                               ; preds = %32
  br label %47

47:                                               ; preds = %46
  br label %48

48:                                               ; preds = %47
  store i32 0, ptr %4, align 4
  br label %130

49:                                               ; preds = %32
  br label %50

50:                                               ; preds = %49
  br label %51

51:                                               ; preds = %50
  %52 = load ptr, ptr %6, align 8
  %53 = load ptr, ptr %7, align 8
  %54 = call noundef i32 @_ZN4llvm15LegalizerHelper7libcallERNS_12MachineInstrERNS_20LostDebugLocObserverE(ptr noundef nonnull align 8 dereferenceable(48) %15, ptr noundef nonnull align 8 dereferenceable(70) %52, ptr noundef nonnull align 8 dereferenceable(252) %53)
  store i32 %54, ptr %4, align 4
  br label %130

55:                                               ; preds = %32
  br label %56

56:                                               ; preds = %55
  br label %57

57:                                               ; preds = %56
  %58 = load ptr, ptr %6, align 8
  %59 = getelementptr inbounds nuw %"struct.llvm::LegalizeActionStep", ptr %8, i32 0, i32 1
  %60 = load i32, ptr %59, align 4
  %61 = getelementptr inbounds nuw %"struct.llvm::LegalizeActionStep", ptr %8, i32 0, i32 2
  call void @llvm.memcpy.p0.p0.i64(ptr align 8 %9, ptr align 8 %61, i64 8, i1 false)
  %62 = getelementptr inbounds nuw %"class.llvm::LLT", ptr %9, i32 0, i32 0
  %63 = load i64, ptr %62, align 8
  %64 = call noundef i32 @_ZN4llvm15LegalizerHelper12narrowScalarERNS_12MachineInstrEjNS_3LLTE(ptr noundef nonnull align 8 dereferenceable(48) %15, ptr noundef nonnull align 8 dereferenceable(70) %58, i32 noundef %60, i64 %63)
  store i32 %64, ptr %4, align 4
  br label %130

65:                                               ; preds = %32
  br label %66

66:                                               ; preds = %65
  br label %67

67:                                               ; preds = %66
  %68 = load ptr, ptr %6, align 8
  %69 = getelementptr inbounds nuw %"struct.llvm::LegalizeActionStep", ptr %8, i32 0, i32 1
  %70 = load i32, ptr %69, align 4
  %71 = getelementptr inbounds nuw %"struct.llvm::LegalizeActionStep", ptr %8, i32 0, i32 2
  call void @llvm.memcpy.p0.p0.i64(ptr align 8 %10, ptr align 8 %71, i64 8, i1 false)
  %72 = getelementptr inbounds nuw %"class.llvm::LLT", ptr %10, i32 0, i32 0
  %73 = load i64, ptr %72, align 8
  %74 = call noundef i32 @_ZN4llvm15LegalizerHelper11widenScalarERNS_12MachineInstrEjNS_3LLTE(ptr noundef nonnull align 8 dereferenceable(48) %15, ptr noundef nonnull align 8 dereferenceable(70) %68, i32 noundef %70, i64 %73)
  store i32 %74, ptr %4, align 4
  br label %130

75:                                               ; preds = %32
  br label %76

76:                                               ; preds = %75
  br label %77

77:                                               ; preds = %76
  %78 = load ptr, ptr %6, align 8
  %79 = getelementptr inbounds nuw %"struct.llvm::LegalizeActionStep", ptr %8, i32 0, i32 1
  %80 = load i32, ptr %79, align 4
  %81 = getelementptr inbounds nuw %"struct.llvm::LegalizeActionStep", ptr %8, i32 0, i32 2
  call void @llvm.memcpy.p0.p0.i64(ptr align 8 %11, ptr align 8 %81, i64 8, i1 false)
  %82 = getelementptr inbounds nuw %"class.llvm::LLT", ptr %11, i32 0, i32 0
  %83 = load i64, ptr %82, align 8
  %84 = call noundef i32 @_ZN4llvm15LegalizerHelper7bitcastERNS_12MachineInstrEjNS_3LLTE(ptr noundef nonnull align 8 dereferenceable(48) %15, ptr noundef nonnull align 8 dereferenceable(70) %78, i32 noundef %80, i64 %83)
  store i32 %84, ptr %4, align 4
  br label %130

85:                                               ; preds = %32
  br label %86

86:                                               ; preds = %85
  br label %87

87:                                               ; preds = %86
  %88 = load ptr, ptr %6, align 8
  %89 = getelementptr inbounds nuw %"struct.llvm::LegalizeActionStep", ptr %8, i32 0, i32 1
  %90 = load i32, ptr %89, align 4
  %91 = getelementptr inbounds nuw %"struct.llvm::LegalizeActionStep", ptr %8, i32 0, i32 2
  call void @llvm.memcpy.p0.p0.i64(ptr align 8 %12, ptr align 8 %91, i64 8, i1 false)
  %92 = getelementptr inbounds nuw %"class.llvm::LLT", ptr %12, i32 0, i32 0
  %93 = load i64, ptr %92, align 8
  %94 = call noundef i32 @_ZN4llvm15LegalizerHelper5lowerERNS_12MachineInstrEjNS_3LLTE(ptr noundef nonnull align 8 dereferenceable(48) %15, ptr noundef nonnull align 8 dereferenceable(70) %88, i32 noundef %90, i64 %93)
  store i32 %94, ptr %4, align 4
  br label %130

95:                                               ; preds = %32
  br label %96

96:                                               ; preds = %95
  br label %97

97:                                               ; preds = %96
  %98 = load ptr, ptr %6, align 8
  %99 = getelementptr inbounds nuw %"struct.llvm::LegalizeActionStep", ptr %8, i32 0, i32 1
  %100 = load i32, ptr %99, align 4
  %101 = getelementptr inbounds nuw %"struct.llvm::LegalizeActionStep", ptr %8, i32 0, i32 2
  call void @llvm.memcpy.p0.p0.i64(ptr align 8 %13, ptr align 8 %101, i64 8, i1 false)
  %102 = getelementptr inbounds nuw %"class.llvm::LLT", ptr %13, i32 0, i32 0
  %103 = load i64, ptr %102, align 8
  %104 = call noundef i32 @_ZN4llvm15LegalizerHelper19fewerElementsVectorERNS_12MachineInstrEjNS_3LLTE(ptr noundef nonnull align 8 dereferenceable(48) %15, ptr noundef nonnull align 8 dereferenceable(70) %98, i32 noundef %100, i64 %103)
  store i32 %104, ptr %4, align 4
  br label %130

105:                                              ; preds = %32
  br label %106

106:                                              ; preds = %105
  br label %107

107:                                              ; preds = %106
  %108 = load ptr, ptr %6, align 8
  %109 = getelementptr inbounds nuw %"struct.llvm::LegalizeActionStep", ptr %8, i32 0, i32 1
  %110 = load i32, ptr %109, align 4
  %111 = getelementptr inbounds nuw %"struct.llvm::LegalizeActionStep", ptr %8, i32 0, i32 2
  call void @llvm.memcpy.p0.p0.i64(ptr align 8 %14, ptr align 8 %111, i64 8, i1 false)
  %112 = getelementptr inbounds nuw %"class.llvm::LLT", ptr %14, i32 0, i32 0
  %113 = load i64, ptr %112, align 8
  %114 = call noundef i32 @_ZN4llvm15LegalizerHelper18moreElementsVectorERNS_12MachineInstrEjNS_3LLTE(ptr noundef nonnull align 8 dereferenceable(48) %15, ptr noundef nonnull align 8 dereferenceable(70) %108, i32 noundef %110, i64 %113)
  store i32 %114, ptr %4, align 4
  br label %130

115:                                              ; preds = %32
  br label %116

116:                                              ; preds = %115
  br label %117

117:                                              ; preds = %116
  %118 = getelementptr inbounds nuw %"class.llvm::LegalizerHelper", ptr %15, i32 0, i32 3
  %119 = load ptr, ptr %118, align 8
  %120 = load ptr, ptr %6, align 8
  %121 = load ptr, ptr %7, align 8
  %122 = load ptr, ptr %119, align 8
  %123 = getelementptr inbounds ptr, ptr %122, i64 2
  %124 = load ptr, ptr %123, align 8
  %125 = call noundef zeroext i1 %124(ptr noundef nonnull align 8 dereferenceable(121040) %119, ptr noundef nonnull align 8 dereferenceable(48) %15, ptr noundef nonnull align 8 dereferenceable(70) %120, ptr noundef nonnull align 8 dereferenceable(252) %121)
  %126 = select i1 %125, i32 1, i32 2
  store i32 %126, ptr %4, align 4
  br label %130

127:                                              ; preds = %32
  br label %128

128:                                              ; preds = %127
  br label %129

129:                                              ; preds = %128
  store i32 2, ptr %4, align 4
  br label %130

130:                                              ; preds = %129, %117, %107, %97, %87, %77, %67, %57, %51, %48, %23
  %131 = load i32, ptr %4, align 4
  ret i32 %131
}