; Function Attrs: mustprogress nounwind uwtable
define dso_local noundef i32 @_ZN4llvm15LegalizerHelper17legalizeInstrStepERNS_12MachineInstrERNS_20LostDebugLocObserverE(ptr noundef nonnull align 8 dereferenceable(48) %0, ptr noundef nonnull align 8 dereferenceable(70) %1, ptr noundef nonnull align 8 dereferenceable(252) %2) local_unnamed_addr #0 align 2 {
  %4 = load ptr, ptr %0, align 8
  tail call void @_ZN4llvm16MachineIRBuilder19setInstrAndDebugLocERNS_12MachineInstrE(ptr noundef nonnull align 8 dereferenceable(88) %4, ptr noundef nonnull align 8 dereferenceable(70) %1)
  %5 = getelementptr inbounds nuw i8, ptr %1, i64 68
  %6 = load i16, ptr %5, align 4
  %7 = zext i16 %6 to i32
  %.off.i.i.i.i.i.i = add nsw i32 %7, -122
  %switch.i.i.i.i.i.i = icmp ult i32 %.off.i.i.i.i.i.i, 4
  %8 = getelementptr inbounds nuw i8, ptr %0, i64 24
  %9 = load ptr, ptr %8, align 8
  br i1 %switch.i.i.i.i.i.i, label %10, label %16

10:                                               ; preds = %3
  %11 = load ptr, ptr %9, align 8
  %12 = getelementptr inbounds i8, ptr %11, i64 24
  %13 = load ptr, ptr %12, align 8
  %14 = tail call noundef zeroext i1 %13(ptr noundef nonnull align 8 dereferenceable(121040) %9, ptr noundef nonnull align 8 dereferenceable(48) %0, ptr noundef nonnull align 8 dereferenceable(70) %1) #18
  %15 = select i1 %14, i32 1, i32 2
  br label %44

16:                                               ; preds = %3
  %17 = getelementptr inbounds nuw i8, ptr %0, i64 16
  %18 = load ptr, ptr %17, align 8
  %19 = tail call { i64, i64 } @_ZNK4llvm13LegalizerInfo9getActionERKNS_12MachineInstrERKNS_19MachineRegisterInfoE(ptr noundef nonnull align 8 dereferenceable(121040) %9, ptr noundef nonnull align 8 dereferenceable(70) %1, ptr noundef nonnull align 8 dereferenceable(512) %18) #18
  %20 = extractvalue { i64, i64 } %19, 0
  %.sroa.06.0.extract.trunc = trunc i64 %20 to i8
  %.sroa.27.0.extract.shift = lshr i64 %20, 32
  %.sroa.27.0.extract.trunc = trunc nuw i64 %.sroa.27.0.extract.shift to i32
  %21 = extractvalue { i64, i64 } %19, 1
  switch i8 %.sroa.06.0.extract.trunc, label %43 [
    i8 0, label %44
    i8 7, label %22
    i8 1, label %24
    i8 2, label %26
    i8 5, label %28
    i8 6, label %30
    i8 3, label %32
    i8 4, label %34
    i8 8, label %36
  ]

22:                                               ; preds = %16
  %23 = tail call noundef i32 @_ZN4llvm15LegalizerHelper7libcallERNS_12MachineInstrERNS_20LostDebugLocObserverE(ptr noundef nonnull align 8 dereferenceable(48) %0, ptr noundef nonnull align 8 dereferenceable(70) %1, ptr noundef nonnull align 8 dereferenceable(252) %2)
  br label %44

24:                                               ; preds = %16
  %25 = tail call noundef i32 @_ZN4llvm15LegalizerHelper12narrowScalarERNS_12MachineInstrEjNS_3LLTE(ptr noundef nonnull align 8 dereferenceable(48) %0, ptr noundef nonnull align 8 dereferenceable(70) %1, i32 noundef %.sroa.27.0.extract.trunc, i64 %21)
  br label %44

26:                                               ; preds = %16
  %27 = tail call noundef i32 @_ZN4llvm15LegalizerHelper11widenScalarERNS_12MachineInstrEjNS_3LLTE(ptr noundef nonnull align 8 dereferenceable(48) %0, ptr noundef nonnull align 8 dereferenceable(70) %1, i32 noundef %.sroa.27.0.extract.trunc, i64 %21)
  br label %44

28:                                               ; preds = %16
  %29 = tail call noundef i32 @_ZN4llvm15LegalizerHelper7bitcastERNS_12MachineInstrEjNS_3LLTE(ptr noundef nonnull align 8 dereferenceable(48) %0, ptr noundef nonnull align 8 dereferenceable(70) %1, i32 noundef %.sroa.27.0.extract.trunc, i64 %21)
  br label %44

30:                                               ; preds = %16
  %31 = tail call noundef i32 @_ZN4llvm15LegalizerHelper5lowerERNS_12MachineInstrEjNS_3LLTE(ptr noundef nonnull align 8 dereferenceable(48) %0, ptr noundef nonnull align 8 dereferenceable(70) %1, i32 poison, i64 poison)
  br label %44

32:                                               ; preds = %16
  %33 = tail call noundef i32 @_ZN4llvm15LegalizerHelper19fewerElementsVectorERNS_12MachineInstrEjNS_3LLTE(ptr noundef nonnull align 8 dereferenceable(48) %0, ptr noundef nonnull align 8 dereferenceable(70) %1, i32 noundef %.sroa.27.0.extract.trunc, i64 %21)
  br label %44

34:                                               ; preds = %16
  %35 = tail call noundef i32 @_ZN4llvm15LegalizerHelper18moreElementsVectorERNS_12MachineInstrEjNS_3LLTE(ptr noundef nonnull align 8 dereferenceable(48) %0, ptr noundef nonnull align 8 dereferenceable(70) %1, i32 noundef %.sroa.27.0.extract.trunc, i64 %21)
  br label %44

36:                                               ; preds = %16
  %37 = load ptr, ptr %8, align 8
  %38 = load ptr, ptr %37, align 8
  %39 = getelementptr inbounds i8, ptr %38, i64 16
  %40 = load ptr, ptr %39, align 8
  %41 = tail call noundef zeroext i1 %40(ptr noundef nonnull align 8 dereferenceable(121040) %37, ptr noundef nonnull align 8 dereferenceable(48) %0, ptr noundef nonnull align 8 dereferenceable(70) %1, ptr noundef nonnull align 8 dereferenceable(252) %2) #18
  %42 = select i1 %41, i32 1, i32 2
  br label %44

43:                                               ; preds = %16
  br label %44

44:                                               ; preds = %16, %43, %36, %34, %32, %30, %28, %26, %24, %22, %10
  %.0 = phi i32 [ %15, %10 ], [ 2, %43 ], [ %42, %36 ], [ %35, %34 ], [ %33, %32 ], [ %31, %30 ], [ %29, %28 ], [ %27, %26 ], [ %25, %24 ], [ %23, %22 ], [ 0, %16 ]
  ret i32 %.0
}